target datalayout = "e-m:e-p270:32:32-p271:32:32-p272:64:64-i64:64-i128:128-f80:128-n8:16:32:64-S128"
target triple = "x86_64-pc-linux-gnu"

%struct.nstime_t = type { i64, i32 }
%struct._packet_info = type { ptr, ptr, i32, i32, %struct.nstime_t, %struct.nstime_t, %struct.nstime_t, i32, ptr, ptr, ptr, ptr, %struct._address, %struct._address, %struct._address, %struct._address, %struct._address, %struct._address, i32, ptr, i32, %struct.anon.0, i32, i32, i32, i32, ptr, i32, ptr, ptr, i16, i16, i32, i32, i16, i32, i32, ptr, ptr, ptr, i8, i8, i16, i16, i16, i32, i16, i16, ptr, ptr, ptr, ptr, ptr, i32 }
%struct._address = type { i32, i32, ptr, ptr }
%struct.anon.0 = type { i8, [3 x i8] }
%struct.mbim_pair_list = type { i32, i32 }

@hf_mbim_multiflow_tft_info_session_id = internal global i32 0, align 4
@hf_mbim_multiflow_tft_info_elem_count = internal global i32 0, align 4
@hf_mbim_multiflow_tft_info_tft_list_offset = internal global i32 0, align 4
@hf_mbim_multiflow_tft_info_tft_list_size = internal global i32 0, align 4
@ett_mbim_pair_list = internal global i32 0, align 4
@.str.2597 = private unnamed_addr constant [9 x i8] c"TFT List\00", align 1
@.str.2598 = private unnamed_addr constant [8 x i8] c"TFT #%u\00", align 1

; Function Attrs: nounwind uwtable
define internal void @mbim_dissect_multiflow_tft_info(ptr noundef %0, ptr noundef %1, ptr noundef %2, i32 noundef %3) #0 {
  %5 = alloca ptr, align 8
  %6 = alloca ptr, align 8
  %7 = alloca ptr, align 8
  %8 = alloca i32, align 4
  %9 = alloca ptr, align 8
  %10 = alloca i32, align 4
  %11 = alloca i32, align 4
  %12 = alloca i32, align 4
  %13 = alloca ptr, align 8
  %14 = alloca %struct.mbim_pair_list, align 4
  %15 = alloca ptr, align 8
  store ptr %0, ptr %5, align 8
  store ptr %1, ptr %6, align 8
  store ptr %2, ptr %7, align 8
  store i32 %3, ptr %8, align 4
  %16 = load i32, ptr %8, align 4
  store i32 %16, ptr %10, align 4
  %17 = load ptr, ptr %7, align 8
  %18 = load i32, ptr @hf_mbim_multiflow_tft_info_session_id, align 4
  %19 = load ptr, ptr %5, align 8
  %20 = load i32, ptr %8, align 4
  %21 = call ptr @proto_tree_add_item(ptr noundef %17, i32 noundef %18, ptr noundef %19, i32 noundef %20, i32 noundef 4, i32 noundef -2147483648)
  %22 = load i32, ptr %8, align 4
  %23 = add i32 %22, 4
  store i32 %23, ptr %8, align 4
  %24 = load ptr, ptr %7, align 8
  %25 = load i32, ptr @hf_mbim_multiflow_tft_info_elem_count, align 4
  %26 = load ptr, ptr %5, align 8
  %27 = load i32, ptr %8, align 4
  %28 = call ptr @proto_tree_add_item_ret_uint(ptr noundef %24, i32 noundef %25, ptr noundef %26, i32 noundef %27, i32 noundef 4, i32 noundef -2147483648, ptr noundef %12)
  %29 = load i32, ptr %8, align 4
  %30 = add i32 %29, 4
  store i32 %30, ptr %8, align 4
  %31 = load i32, ptr %12, align 4
  %32 = icmp ne i32 %31, 0
  br i1 %32, label %33, label %120

33:                                               ; preds = %4
  %34 = load ptr, ptr %6, align 8
  %35 = getelementptr inbounds %struct._packet_info, ptr %34, i32 0, i32 50
  %36 = load ptr, ptr %35, align 8
  %37 = call noalias ptr @wmem_array_new(ptr noundef %36, i64 noundef 8)
  store ptr %37, ptr %13, align 8
  %38 = load ptr, ptr %7, align 8
  %39 = load ptr, ptr %5, align 8
  %40 = load i32, ptr %8, align 4
  %41 = load i32, ptr %12, align 4
  %42 = mul i32 8, %41
  %43 = load i32, ptr @ett_mbim_pair_list, align 4
  %44 = call ptr @proto_tree_add_subtree(ptr noundef %38, ptr noundef %39, i32 noundef %40, i32 noundef %42, i32 noundef %43, ptr noundef null, ptr noundef @.str.2597)
  store ptr %44, ptr %9, align 8
  store i32 0, ptr %11, align 4
  br label %45

45:                                               ; preds = %67, %33
  %46 = load i32, ptr %11, align 4
  %47 = load i32, ptr %12, align 4
  %48 = icmp ult i32 %46, %47
  br i1 %48, label %49, label %70

49:                                               ; preds = %45
  %50 = load ptr, ptr %9, align 8
  %51 = load i32, ptr @hf_mbim_multiflow_tft_info_tft_list_offset, align 4
  %52 = load ptr, ptr %5, align 8
  %53 = load i32, ptr %8, align 4
  %54 = getelementptr inbounds %struct.mbim_pair_list, ptr %14, i32 0, i32 0
  %55 = call ptr @proto_tree_add_item_ret_uint(ptr noundef %50, i32 noundef %51, ptr noundef %52, i32 noundef %53, i32 noundef 4, i32 noundef -2147483648, ptr noundef %54)
  %56 = load i32, ptr %8, align 4
  %57 = add i32 %56, 4
  store i32 %57, ptr %8, align 4
  %58 = load ptr, ptr %9, align 8
  %59 = load i32, ptr @hf_mbim_multiflow_tft_info_tft_list_size, align 4
  %60 = load ptr, ptr %5, align 8
  %61 = load i32, ptr %8, align 4
  %62 = getelementptr inbounds %struct.mbim_pair_list, ptr %14, i32 0, i32 1
  %63 = call ptr @proto_tree_add_item_ret_uint(ptr noundef %58, i32 noundef %59, ptr noundef %60, i32 noundef %61, i32 noundef 4, i32 noundef -2147483648, ptr noundef %62)
  %64 = load i32, ptr %8, align 4
  %65 = add i32 %64, 4
  store i32 %65, ptr %8, align 4
  %66 = load ptr, ptr %13, align 8
  call void @wmem_array_append(ptr noundef %66, ptr noundef %14, i32 noundef 1)
  br label %67

67:                                               ; preds = %49
  %68 = load i32, ptr %11, align 4
  %69 = add i32 %68, 1
  store i32 %69, ptr %11, align 4
  br label %45, !llvm.loop !47

70:                                               ; preds = %45
  store i32 0, ptr %11, align 4
  br label %71

71:                                               ; preds = %116, %70
  %72 = load i32, ptr %11, align 4
  %73 = load i32, ptr %12, align 4
  %74 = icmp ult i32 %72, %73
  br i1 %74, label %75, label %119

75:                                               ; preds = %71
  %76 = load ptr, ptr %13, align 8
  %77 = load i32, ptr %11, align 4
  %78 = call ptr @wmem_array_index(ptr noundef %76, i32 noundef %77)
  store ptr %78, ptr %15, align 8
  %79 = load ptr, ptr %15, align 8
  %80 = getelementptr inbounds %struct.mbim_pair_list, ptr %79, i32 0, i32 0
  %81 = load i32, ptr %80, align 4
  %82 = icmp ne i32 %81, 0
  br i1 %82, label %83, label %115

83:                                               ; preds = %75
  %84 = load ptr, ptr %15, align 8
  %85 = getelementptr inbounds %struct.mbim_pair_list, ptr %84, i32 0, i32 1
  %86 = load i32, ptr %85, align 4
  %87 = icmp ne i32 %86, 0
  br i1 %87, label %88, label %115

88:                                               ; preds = %83
  %89 = load ptr, ptr %7, align 8
  %90 = load ptr, ptr %5, align 8
  %91 = load i32, ptr %10, align 4
  %92 = load ptr, ptr %15, align 8
  %93 = getelementptr inbounds %struct.mbim_pair_list, ptr %92, i32 0, i32 0
  %94 = load i32, ptr %93, align 4
  %95 = add i32 %91, %94
  %96 = load ptr, ptr %15, align 8
  %97 = getelementptr inbounds %struct.mbim_pair_list, ptr %96, i32 0, i32 1
  %98 = load i32, ptr %97, align 4
  %99 = load i32, ptr @ett_mbim_pair_list, align 4
  %100 = load i32, ptr %11, align 4
  %101 = add i32 %100, 1
  %102 = call ptr (ptr, ptr, i32, i32, i32, ptr, ptr, ...) @proto_tree_add_subtree_format(ptr noundef %89, ptr noundef %90, i32 noundef %95, i32 noundef %98, i32 noundef %99, ptr noundef null, ptr noundef @.str.2598, i32 noundef %101)
  store ptr %102, ptr %9, align 8
  %103 = load ptr, ptr %5, align 8
  %104 = load ptr, ptr %9, align 8
  %105 = load ptr, ptr %6, align 8
  %106 = load i32, ptr %10, align 4
  %107 = load ptr, ptr %15, align 8
  %108 = getelementptr inbounds %struct.mbim_pair_list, ptr %107, i32 0, i32 0
  %109 = load i32, ptr %108, align 4
  %110 = add i32 %106, %109
  %111 = load ptr, ptr %15, align 8
  %112 = getelementptr inbounds %struct.mbim_pair_list, ptr %111, i32 0, i32 1
  %113 = load i32, ptr %112, align 4
  %114 = call zeroext i16 @de_sm_tflow_temp(ptr noundef %103, ptr noundef %104, ptr noundef %105, i32 noundef %110, i32 noundef %113, ptr noundef null, i32 noundef 0)
  br label %115

115:                                              ; preds = %88, %83, %75
  br label %116

116:                                              ; preds = %115
  %117 = load i32, ptr %11, align 4
  %118 = add i32 %117, 1
  store i32 %118, ptr %11, align 4
  br label %71, !llvm.loop !48

119:                                              ; preds = %71
  br label %120

120:                                              ; preds = %119, %4
  ret void
}