; Function Attrs: nounwind uwtable
define internal fastcc void @mbim_dissect_multiflow_tft_info(ptr noundef %0, ptr noundef %1, ptr noundef %2, i32 noundef %3) unnamed_addr #0 {
  %5 = alloca i32, align 4
  %6 = alloca %struct.mbim_pair_list, align 4
  %7 = load i32, ptr @hf_mbim_multiflow_tft_info_session_id, align 4
  %8 = tail call ptr @proto_tree_add_item(ptr noundef %2, i32 noundef %7, ptr noundef %0, i32 noundef %3, i32 noundef 4, i32 noundef -2147483648) #10
  %9 = add i32 %3, 4
  %10 = load i32, ptr @hf_mbim_multiflow_tft_info_elem_count, align 4
  %11 = call ptr @proto_tree_add_item_ret_uint(ptr noundef %2, i32 noundef %10, ptr noundef %0, i32 noundef %9, i32 noundef 4, i32 noundef -2147483648, ptr noundef nonnull %5) #10
  %12 = load i32, ptr %5, align 4
  %.not = icmp eq i32 %12, 0
  br i1 %.not, label %.loopexit, label %13

13:                                               ; preds = %4
  %14 = add i32 %3, 8
  %15 = getelementptr inbounds nuw i8, ptr %1, i64 408
  %16 = load ptr, ptr %15, align 8
  %17 = call noalias ptr @wmem_array_new(ptr noundef %16, i64 noundef 8) #10
  %18 = load i32, ptr %5, align 4
  %19 = shl i32 %18, 3
  %20 = load i32, ptr @ett_mbim_pair_list, align 4
  %21 = call ptr @proto_tree_add_subtree(ptr noundef %2, ptr noundef %0, i32 noundef %14, i32 noundef %19, i32 noundef %20, ptr noundef null, ptr noundef nonnull @.str.2597) #10
  %22 = load i32, ptr %5, align 4
  %.not50 = icmp eq i32 %22, 0
  br i1 %.not50, label %.loopexit, label %.lr.ph

.lr.ph:                                           ; preds = %13
  %23 = getelementptr inbounds nuw i8, ptr %6, i64 4
  br label %25

.preheader:                                       ; preds = %25
  %24 = icmp eq i32 %33, 0
  br i1 %24, label %.loopexit, label %.lr.ph49

25:                                               ; preds = %.lr.ph, %25
  %.047 = phi i32 [ %14, %.lr.ph ], [ %31, %25 ]
  %.04146 = phi i32 [ 0, %.lr.ph ], [ %32, %25 ]
  %26 = load i32, ptr @hf_mbim_multiflow_tft_info_tft_list_offset, align 4
  %27 = call ptr @proto_tree_add_item_ret_uint(ptr noundef %21, i32 noundef %26, ptr noundef %0, i32 noundef %.047, i32 noundef 4, i32 noundef -2147483648, ptr noundef nonnull %6) #10
  %28 = add i32 %.047, 4
  %29 = load i32, ptr @hf_mbim_multiflow_tft_info_tft_list_size, align 4
  %30 = call ptr @proto_tree_add_item_ret_uint(ptr noundef %21, i32 noundef %29, ptr noundef %0, i32 noundef %28, i32 noundef 4, i32 noundef -2147483648, ptr noundef nonnull %23) #10
  %31 = add i32 %.047, 8
  call void @wmem_array_append(ptr noundef %17, ptr noundef nonnull %6, i32 noundef 1) #10
  %32 = add nuw i32 %.04146, 1
  %33 = load i32, ptr %5, align 4
  %34 = icmp ult i32 %32, %33
  br i1 %34, label %25, label %.preheader, !llvm.loop !52

.lr.ph49:                                         ; preds = %.preheader, %49
  %.148 = phi i32 [ %50, %49 ], [ 0, %.preheader ]
  %35 = call ptr @wmem_array_index(ptr noundef %17, i32 noundef %.148) #10
  %36 = load i32, ptr %35, align 4
  %.not44 = icmp eq i32 %36, 0
  br i1 %.not44, label %49, label %37

37:                                               ; preds = %.lr.ph49
  %38 = getelementptr inbounds nuw i8, ptr %35, i64 4
  %39 = load i32, ptr %38, align 4
  %.not45 = icmp eq i32 %39, 0
  br i1 %.not45, label %49, label %40

40:                                               ; preds = %37
  %41 = add i32 %36, %3
  %42 = load i32, ptr @ett_mbim_pair_list, align 4
  %43 = add nuw i32 %.148, 1
  %44 = call ptr (ptr, ptr, i32, i32, i32, ptr, ptr, ...) @proto_tree_add_subtree_format(ptr noundef %2, ptr noundef %0, i32 noundef %41, i32 noundef %39, i32 noundef %42, ptr noundef null, ptr noundef nonnull @.str.2598, i32 noundef %43) #10
  %45 = load i32, ptr %35, align 4
  %46 = add i32 %45, %3
  %47 = load i32, ptr %38, align 4
  %48 = call zeroext i16 @de_sm_tflow_temp(ptr noundef %0, ptr noundef %44, ptr noundef %1, i32 noundef %46, i32 noundef %47, ptr noundef null, i32 noundef 0) #10
  br label %49

49:                                               ; preds = %.lr.ph49, %37, %40
  %50 = add nuw i32 %.148, 1
  %51 = load i32, ptr %5, align 4
  %52 = icmp ult i32 %50, %51
  br i1 %52, label %.lr.ph49, label %.loopexit, !llvm.loop !53

.loopexit:                                        ; preds = %49, %13, %.preheader, %4
  ret void
}